target datalayout = "e-m:e-p270:32:32-p271:32:32-p272:64:64-i64:64-i128:128-f80:128-n8:16:32:64-S128"
target triple = "x86_64-pc-linux-gnu"

%struct.DdManager = type { %struct.DdNode, ptr, ptr, ptr, ptr, ptr, ptr, ptr, i32, i32, double, double, double, i32, i32, i32, i32, i32, i32, ptr, ptr, %struct.DdSubtable, i32, i32, i32, i32, i32, i32, i32, double, i32, i32, i32, ptr, i64, double, i32, ptr, ptr, ptr, ptr, ptr, ptr, ptr, i32, ptr, ptr, ptr, ptr, ptr, ptr, i32, i32, i32, double, i32, i32, i32, i32, double, double, i32, i32, i32, i32, i32, i32, i32, i32, i32, ptr, ptr, i32, i32, i32, i32, i32, i32, ptr, ptr, ptr, ptr, ptr, ptr, ptr, ptr, i32, i64, i64, i64, i32, i64, i64, double, double, double, double, double, double, i32, ptr, ptr, i64 }
%struct.DdNode = type { i32, i32, ptr, %union.anon, i64 }
%union.anon = type { %struct.DdChildren }
%struct.DdChildren = type { ptr, ptr }
%struct.DdSubtable = type { ptr, i32, i32, i32, i32, i32, i32, i32, i32, i32, i32, i32 }

; Function Attrs: nounwind uwtable
define ptr @cuddZddSubset1(ptr noundef %0, ptr noundef %1, i32 noundef %2) #0 {
  %4 = alloca ptr, align 8
  %5 = alloca ptr, align 8
  %6 = alloca ptr, align 8
  %7 = alloca i32, align 4
  %8 = alloca ptr, align 8
  %9 = alloca ptr, align 8
  %10 = alloca ptr, align 8
  %11 = alloca ptr, align 8
  %12 = alloca i32, align 4
  store ptr %0, ptr %5, align 8, !tbaa !3
  store ptr %1, ptr %6, align 8, !tbaa !8
  store i32 %2, ptr %7, align 4, !tbaa !32
  call void @llvm.lifetime.start.p0(i64 8, ptr %8) #3
  call void @llvm.lifetime.start.p0(i64 8, ptr %9) #3
  call void @llvm.lifetime.start.p0(i64 8, ptr %10) #3
  call void @llvm.lifetime.start.p0(i64 8, ptr %11) #3
  %13 = load ptr, ptr %5, align 8, !tbaa !3
  %14 = getelementptr inbounds nuw %struct.DdManager, ptr %13, i32 0, i32 1
  %15 = load ptr, ptr %14, align 8, !tbaa !33
  store ptr %15, ptr %10, align 8, !tbaa !8
  %16 = load ptr, ptr %5, align 8, !tbaa !3
  %17 = getelementptr inbounds nuw %struct.DdManager, ptr %16, i32 0, i32 2
  %18 = load ptr, ptr %17, align 8, !tbaa !29
  store ptr %18, ptr %11, align 8, !tbaa !8
  %19 = load ptr, ptr %5, align 8, !tbaa !3
  %20 = load i32, ptr %7, align 4, !tbaa !32
  %21 = load ptr, ptr %10, align 8, !tbaa !8
  %22 = load ptr, ptr %11, align 8, !tbaa !8
  %23 = call ptr @cuddUniqueInterZdd(ptr noundef %19, i32 noundef %20, ptr noundef %21, ptr noundef %22)
  store ptr %23, ptr %8, align 8, !tbaa !8
  %24 = load ptr, ptr %8, align 8, !tbaa !8
  %25 = icmp eq ptr %24, null
  br i1 %25, label %26, label %27

26:                                               ; preds = %3
  store ptr null, ptr %4, align 8
  store i32 1, ptr %12, align 4
  br label %63

27:                                               ; preds = %3
  %28 = load ptr, ptr %8, align 8, !tbaa !8
  %29 = ptrtoint ptr %28 to i64
  %30 = and i64 %29, -2
  %31 = inttoptr i64 %30 to ptr
  %32 = getelementptr inbounds nuw %struct.DdNode, ptr %31, i32 0, i32 1
  %33 = load i32, ptr %32, align 4, !tbaa !36
  %34 = add i32 %33, 1
  store i32 %34, ptr %32, align 4, !tbaa !36
  %35 = load ptr, ptr %5, align 8, !tbaa !3
  %36 = load ptr, ptr %6, align 8, !tbaa !8
  %37 = load ptr, ptr %8, align 8, !tbaa !8
  %38 = call ptr @zdd_subset1_aux(ptr noundef %35, ptr noundef %36, ptr noundef %37)
  store ptr %38, ptr %9, align 8, !tbaa !8
  %39 = load ptr, ptr %9, align 8, !tbaa !8
  %40 = icmp eq ptr %39, null
  br i1 %40, label %41, label %44

41:                                               ; preds = %27
  %42 = load ptr, ptr %5, align 8, !tbaa !3
  %43 = load ptr, ptr %8, align 8, !tbaa !8
  call void @Cudd_RecursiveDerefZdd(ptr noundef %42, ptr noundef %43)
  store ptr null, ptr %4, align 8
  store i32 1, ptr %12, align 4
  br label %63

44:                                               ; preds = %27
  %45 = load ptr, ptr %9, align 8, !tbaa !8
  %46 = ptrtoint ptr %45 to i64
  %47 = and i64 %46, -2
  %48 = inttoptr i64 %47 to ptr
  %49 = getelementptr inbounds nuw %struct.DdNode, ptr %48, i32 0, i32 1
  %50 = load i32, ptr %49, align 4, !tbaa !36
  %51 = add i32 %50, 1
  store i32 %51, ptr %49, align 4, !tbaa !36
  %52 = load ptr, ptr %5, align 8, !tbaa !3
  %53 = load ptr, ptr %8, align 8, !tbaa !8
  call void @Cudd_RecursiveDerefZdd(ptr noundef %52, ptr noundef %53)
  br label %54

54:                                               ; preds = %44
  %55 = load ptr, ptr %9, align 8, !tbaa !8
  %56 = ptrtoint ptr %55 to i64
  %57 = and i64 %56, -2
  %58 = inttoptr i64 %57 to ptr
  %59 = getelementptr inbounds nuw %struct.DdNode, ptr %58, i32 0, i32 1
  %60 = load i32, ptr %59, align 4, !tbaa !36
  %61 = add i32 %60, -1
  store i32 %61, ptr %59, align 4, !tbaa !36
  %62 = load ptr, ptr %9, align 8, !tbaa !8
  store ptr %62, ptr %4, align 8
  store i32 1, ptr %12, align 4
  br label %63

63:                                               ; preds = %54, %41, %26
  call void @llvm.lifetime.end.p0(i64 8, ptr %11) #3
  call void @llvm.lifetime.end.p0(i64 8, ptr %10) #3
  call void @llvm.lifetime.end.p0(i64 8, ptr %9) #3
  call void @llvm.lifetime.end.p0(i64 8, ptr %8) #3
  %64 = load ptr, ptr %4, align 8
  ret ptr %64
}